; Function Attrs: mustprogress uwtable
define hidden void @_ZN19OpenColorIO_v2_5dev21ExponentTransformImpl16setNegativeStyleENS_13NegativeStyleE(ptr noundef nonnull align 8 dereferenceable(280) %0, i32 noundef %1) unnamed_addr #0 align 2 {
  %3 = alloca i32, align 4
  %4 = load ptr, ptr %0, align 8, !tbaa !3
  %5 = getelementptr inbounds nuw i8, ptr %4, i64 8
  %6 = load ptr, ptr %5, align 8
  %7 = tail call noundef i32 %6(ptr noundef nonnull align 8 dereferenceable(280) %0) #22
  %8 = getelementptr inbounds nuw i8, ptr %0, i64 8
  call void @llvm.lifetime.start.p0(i64 4, ptr nonnull %3) #22
  %9 = tail call noundef i32 @_ZN19OpenColorIO_v2_5dev11GammaOpData17ConvertStyleBasicENS_13NegativeStyleENS_18TransformDirectionE(i32 noundef %1, i32 noundef %7)
  store i32 %9, ptr %3, align 4, !tbaa !61
  call void @_ZN19OpenColorIO_v2_5dev11GammaOpData8setStyleERKNS0_5StyleE(ptr noundef nonnull align 8 dereferenceable(272) %8, ptr noundef nonnull align 4 dereferenceable(4) %3) #22
  call void @llvm.lifetime.end.p0(i64 4, ptr nonnull %3) #22
  ret void
}